target datalayout = "e-m:e-p270:32:32-p271:32:32-p272:64:64-i64:64-i128:128-f80:128-n8:16:32:64-S128"
target triple = "x86_64-unknown-linux-gnu"

%struct.dsa_st = type { i64, ptr, ptr, ptr, ptr, ptr, ptr, ptr, i32, %union.crypto_mutex_st, ptr, i32, %struct.crypto_ex_data_st }
%union.crypto_mutex_st = type { double, [48 x i8] }
%struct.crypto_ex_data_st = type { ptr }

; Function Attrs: nounwind uwtable
define internal i64 @der_len_len(i64 noundef %len) #0 {
entry:
  %retval = alloca i64, align 8
  %len.addr = alloca i64, align 8
  %ret = alloca i64, align 8
  store i64 %len, ptr %len.addr, align 8
  %0 = load i64, ptr %len.addr, align 8
  %cmp = icmp ult i64 %0, 128
  br i1 %cmp, label %if.then, label %if.end

if.then:                                          ; preds = %entry
  store i64 1, ptr %retval, align 8
  br label %return

if.end:                                           ; preds = %entry
  store i64 1, ptr %ret, align 8
  br label %while.cond

while.cond:                                       ; preds = %while.body, %if.end
  %1 = load i64, ptr %len.addr, align 8
  %cmp1 = icmp ugt i64 %1, 0
  br i1 %cmp1, label %while.body, label %while.end

while.body:                                       ; preds = %while.cond
  %2 = load i64, ptr %ret, align 8
  %inc = add i64 %2, 1
  store i64 %inc, ptr %ret, align 8
  %3 = load i64, ptr %len.addr, align 8
  %shr = lshr i64 %3, 8
  store i64 %shr, ptr %len.addr, align 8
  br label %while.cond, !llvm.loop !14

while.end:                                        ; preds = %while.cond
  %4 = load i64, ptr %ret, align 8
  store i64 %4, ptr %retval, align 8
  br label %return

return:                                           ; preds = %while.end, %if.then
  %5 = load i64, ptr %retval, align 8
  ret i64 %5
}

; Function Attrs: nounwind uwtable
define hidden i32 @DSA_size(ptr noundef %dsa) #0 {
entry:
  %retval = alloca i32, align 4
  %dsa.addr = alloca ptr, align 8
  %order_len = alloca i64, align 8
  %integer_len = alloca i64, align 8
  %value_len = alloca i64, align 8
  %ret = alloca i64, align 8
  store ptr %dsa, ptr %dsa.addr, align 8
  %0 = load ptr, ptr %dsa.addr, align 8
  %q = getelementptr inbounds %struct.dsa_st, ptr %0, i32 0, i32 2
  %1 = load ptr, ptr %q, align 8
  %call = call i32 @BN_num_bytes(ptr noundef %1)
  %conv = zext i32 %call to i64
  store i64 %conv, ptr %order_len, align 8
  %2 = load i64, ptr %order_len, align 8
  %add = add i64 %2, 1
  %call1 = call i64 @der_len_len(i64 noundef %add)
  %add2 = add i64 1, %call1
  %add3 = add i64 %add2, 1
  %3 = load i64, ptr %order_len, align 8
  %add4 = add i64 %add3, %3
  store i64 %add4, ptr %integer_len, align 8
  %4 = load i64, ptr %integer_len, align 8
  %5 = load i64, ptr %order_len, align 8
  %cmp = icmp ult i64 %4, %5
  br i1 %cmp, label %if.then, label %if.end

if.then:                                          ; preds = %entry
  store i32 0, ptr %retval, align 4
  br label %return

if.end:                                           ; preds = %entry
  %6 = load i64, ptr %integer_len, align 8
  %mul = mul i64 2, %6
  store i64 %mul, ptr %value_len, align 8
  %7 = load i64, ptr %value_len, align 8
  %8 = load i64, ptr %integer_len, align 8
  %cmp6 = icmp ult i64 %7, %8
  br i1 %cmp6, label %if.then8, label %if.end9

if.then8:                                         ; preds = %if.end
  store i32 0, ptr %retval, align 4
  br label %return

if.end9:                                          ; preds = %if.end
  %9 = load i64, ptr %value_len, align 8
  %call10 = call i64 @der_len_len(i64 noundef %9)
  %add11 = add i64 1, %call10
  %10 = load i64, ptr %value_len, align 8
  %add12 = add i64 %add11, %10
  store i64 %add12, ptr %ret, align 8
  %11 = load i64, ptr %ret, align 8
  %12 = load i64, ptr %value_len, align 8
  %cmp13 = icmp ult i64 %11, %12
  br i1 %cmp13, label %if.then15, label %if.end16

if.then15:                                        ; preds = %if.end9
  store i32 0, ptr %retval, align 4
  br label %return

if.end16:                                         ; preds = %if.end9
  %13 = load i64, ptr %ret, align 8
  %conv17 = trunc i64 %13 to i32
  store i32 %conv17, ptr %retval, align 4
  br label %return

return:                                           ; preds = %if.end16, %if.then15, %if.then8, %if.then
  %14 = load i32, ptr %retval, align 4
  ret i32 %14
}