; Function Attrs: nounwind uwtable
define hidden i32 @DSA_size(ptr noundef readonly captures(none) %dsa) local_unnamed_addr #0 {
entry:
  %q = getelementptr inbounds nuw i8, ptr %dsa, i64 16
  %0 = load ptr, ptr %q, align 8
  %call = tail call i32 @BN_num_bytes(ptr noundef %0) #8
  %conv = zext i32 %call to i64
  %cmp.i = icmp ult i32 %call, 127
  br i1 %cmp.i, label %der_len_len.exit, label %while.body.i.preheader

while.body.i.preheader:                           ; preds = %entry
  %add = add nuw nsw i64 %conv, 1
  br label %while.body.i

while.body.i:                                     ; preds = %while.body.i.preheader, %while.body.i
  %ret.05.i = phi i64 [ %inc.i, %while.body.i ], [ 1, %while.body.i.preheader ]
  %len.addr.04.i = phi i64 [ %shr.i, %while.body.i ], [ %add, %while.body.i.preheader ]
  %inc.i = add nuw nsw i64 %ret.05.i, 1
  %shr.i = lshr i64 %len.addr.04.i, 8
  %cmp1.not.i = icmp samesign ult i64 %len.addr.04.i, 256
  br i1 %cmp1.not.i, label %der_len_len.exit, label %while.body.i, !llvm.loop !14

der_len_len.exit:                                 ; preds = %while.body.i, %entry
  %retval.0.i = phi i64 [ 1, %entry ], [ %inc.i, %while.body.i ]
  %add3 = add nuw nsw i64 %conv, 2
  %add4 = add i64 %add3, %retval.0.i
  %cmp = icmp ult i64 %add4, %conv
  %cmp6 = icmp slt i64 %add4, 0
  %or.cond = or i1 %cmp, %cmp6
  br i1 %or.cond, label %return, label %if.end9

if.end9:                                          ; preds = %der_len_len.exit
  %mul = shl nuw i64 %add4, 1
  %cmp.i9 = icmp samesign ult i64 %add4, 64
  br i1 %cmp.i9, label %der_len_len.exit17, label %while.body.i10

while.body.i10:                                   ; preds = %if.end9, %while.body.i10
  %ret.05.i11 = phi i64 [ %inc.i13, %while.body.i10 ], [ 1, %if.end9 ]
  %len.addr.04.i12 = phi i64 [ %shr.i14, %while.body.i10 ], [ %mul, %if.end9 ]
  %inc.i13 = add nuw nsw i64 %ret.05.i11, 1
  %shr.i14 = lshr i64 %len.addr.04.i12, 8
  %cmp1.not.i15 = icmp ult i64 %len.addr.04.i12, 256
  br i1 %cmp1.not.i15, label %der_len_len.exit17, label %while.body.i10, !llvm.loop !14

der_len_len.exit17:                               ; preds = %while.body.i10, %if.end9
  %retval.0.i16 = phi i64 [ 1, %if.end9 ], [ %inc.i13, %while.body.i10 ]
  %add11 = or disjoint i64 %mul, 1
  %add12 = add i64 %add11, %retval.0.i16
  %cmp13 = icmp ult i64 %add12, %mul
  %conv17 = trunc i64 %add12 to i32
  %spec.select = select i1 %cmp13, i32 0, i32 %conv17
  br label %return

return:                                           ; preds = %der_len_len.exit17, %der_len_len.exit
  %retval.0 = phi i32 [ 0, %der_len_len.exit ], [ %spec.select, %der_len_len.exit17 ]
  ret i32 %retval.0
}